(lp0
S'SPRY2'
p1
aS'CHD3'
p2
aS'MLH1'
p3
aS'FN1'
p4
aS'ATM'
p5
aS'PRKAA1'
p6
aS'DAXX'
p7
aS'HIST2H2BE'
p8
aS'DNMT3L'
p9
aS'FLNA'
p10
aS'E2F1'
p11
aS'AURKA'
p12
aS'CAV1'
p13
aS'SMURF2'
p14
aS'CCDC33'
p15
aS'VCP'
p16
aS'RASA1'
p17
aS'TINF2'
p18
aS'KRT18'
p19
aS'TLE1'
p20
aS'TRIM63'
p21
aS'PARK2'
p22
aS'HSPB2'
p23
aS'LIG4'
p24
aS'SRF'
p25
aS'SPP1'
p26
aS'PAK1'
p27
aS'SSX2IP'
p28
aS'SMARCA4'
p29
aS'SKIL'
p30
aS'TRIM28'
p31
aS'CREB1'
p32
aS'GAPDH'
p33
aS'BAG6'
p34
aS'CACNA1A'
p35
aS'SIN3A'
p36
aS'NCOA3'
p37
aS'NCOA1'
p38
aS'BTRC'
p39
aS'IRS1'
p40
aS'CDK4'
p41
aS'CDK6'
p42
aS'PRKCB'
p43
aS'PRKCZ'
p44
aS'UBE2K'
p45
aS'SAT1'
p46
aS'NFKBIA'
p47
aS'VAV1'
p48
aS'CRKL'
p49
aS'FXR2'
p50
aS'KIAA1377'
p51
aS'KIFC3'
p52
aS'ESR2'
p53
aS'NR4A1'
p54
aS'DAZAP2'
p55
aS'ITCH'
p56
aS'DVL2'
p57
aS'UNC119'
p58
aS'GNB2L1'
p59
aS'PIK3R3'
p60
aS'MAPK8IP2'
p61
aS'COPS6'
p62
aS'COPS5'
p63
aS'MAGEA11'
p64
aS'DYNLL1'
p65
aS'CHEK2'
p66
aS'PSMA1'
p67
aS'PPP2CA'
p68
aS'CRMP1'
p69
aS'NCOR2'
p70
aS'NCOR1'
p71
aS'PIAS1'
p72
aS'PIAS4'
p73
aS'LMO2'
p74
aS'TRIP13'
p75
aS'Nedd4'
p76
aS'UPF2'
p77
aS'MAPK9'
p78
aS'C1orf103'
p79
aS'PXN'
p80
aS'HCK'
p81
aS'UBE2E3'
p82
aS'FBXO25'
p83
aS'EEF1G'
p84
aS'HRAS'
p85
aS'VHL'
p86
aS'BCL2L1'
p87
aS'ITSN2'
p88
aS'CTBP1'
p89
aS'TSG101'
p90
aS'XPO1'
p91
aS'UBE2D4'
p92
aS'PRMT1'
p93
aS'PRMT6'
p94
aS'PRMT5'
p95
aS'RHOA'
p96
aS'TRAF4'
p97
aS'JAK2'
p98
aS'PRKDC'
p99
aS'RARA'
p100
aS'VKORC1'
p101
aS'HNRNPD'
p102
aS'MAP3K1'
p103
aS'HSPA1A'
p104
aS'HSPA8'
p105
aS'APPBP2'
p106
aS'WDYHV1'
p107
aS'PARP1'
p108
aS'CHUK'
p109
aS'FHL2'
p110
aS'FHL3'
p111
aS'STUB1'
p112
aS'AGTRAP'
p113
aS'BANP'
p114
aS'NCK1'
p115
aS'NCK2'
p116
aS'HDAC2'
p117
aS'HDAC4'
p118
aS'USP2'
p119
aS'IKBKB'
p120
aS'CSNK2A2'
p121
aS'UBE2L3'
p122
aS'IKZF1'
p123
aS'IKZF3'
p124
a.