(lp0
S'DISC1'
p1
aS'SP1'
p2
aS'SMAD9'
p3
aS'SMAD1'
p4
aS'SMAD2'
p5
aS'SMAD3'
p6
aS'APC'
p7
aS'RAC1'
p8
aS'PTPN11'
p9
aS'SRC'
p10
aS'SMAD4'
p11
aS'TERF1'
p12
aS'PLSCR1'
p13
aS'KDM1A'
p14
aS'PRKACA'
p15
aS'LRIF1'
p16
aS'PTK2'
p17
aS'ERBB2'
p18
aS'SHC1'
p19
aS'PCNA'
p20
aS'HDAC1'
p21
aS'PRPF40A'
p22
aS'KHDRBS1'
p23
aS'ZDHHC17'
p24
aS'UBE2D2'
p25
aS'UBE2D3'
p26
aS'UBE2D1'
p27
aS'TRIP6'
p28
aS'TBP'
p29
aS'KRT31'
p30
aS'BRCA1'
p31
aS'XRCC6'
p32
aS'SMURF1'
p33
aS'PLK1'
p34
aS'SGTA'
p35
aS'CDKN1A'
p36
aS'STAT3'
p37
aS'VIM'
p38
aS'ZBTB16'
p39
aS'MDM2'
p40
aS'KPNA2'
p41
aS'CRK'
p42
aS'HSPB1'
p43
aS'KRTAP10-8'
p44
aS'KRTAP10-7'
p45
aS'KRTAP10-3'
p46
aS'KRT15'
p47
aS'CLK1'
p48
aS'TGFBR1'
p49
aS'FYN'
p50
aS'TRIM27'
p51
aS'CREB3'
p52
aS'TRIM23'
p53
aS'KAT5'
p54
aS'AES'
p55
aS'MEOX2'
p56
aS'CALCOCO2'
p57
aS'GRB2'
p58
aS'USHBP1'
p59
aS'POLR2A'
p60
aS'MAPK14'
p61
aS'SUMO1'
p62
aS'SUMO2'
p63
aS'ADAMTSL4'
p64
aS'TFIP11'
p65
aS'CDK1'
p66
aS'CDK2'
p67
aS'PRKCA'
p68
aS'PRKCD'
p69
aS'HIST1H3A'
p70
aS'SETDB1'
p71
aS'SYK'
p72
aS'UBE2I'
p73
aS'UBE2N'
p74
aS'KRTAP4-12'
p75
aS'LYN'
p76
aS'SDCBP'
p77
aS'CEP70'
p78
aS'HGS'
p79
aS'REL'
p80
aS'ACTB'
p81
aS'YWHAZ'
p82
aS'YWHAB'
p83
aS'YWHAG'
p84
aS'YWHAE'
p85
aS'JUN'
p86
aS'PIN1'
p87
aS'MID2'
p88
aS'KRTAP10-9'
p89
aS'UBC'
p90
aS'KRTAP10-5'
p91
aS'LZTS2'
p92
aS'UCHL5'
p93
aS'AR'
p94
aS'CTNNB1'
p95
aS'ATN1'
p96
aS'HIST3H3'
p97
aS'EP300'
p98
aS'RAF1'
p99
aS'PIK3R1'
p100
aS'PML'
p101
aS'YWHAQ'
p102
aS'CCDC85B'
p103
aS'CDC42'
p104
aS'RELA'
p105
aS'TK1'
p106
aS'NOTCH2NL'
p107
aS'PTPN6'
p108
aS'PSMA3'
p109
aS'PPP1CC'
p110
aS'PPP1CA'
p111
aS'PTN'
p112
aS'SNCA'
p113
aS'POT1'
p114
aS'NFKB1'
p115
aS'SIAH1'
p116
aS'DLG4'
p117
aS'SRPK1'
p118
aS'MTUS2'
p119
aS'IL7R'
p120
aS'EEF1A1'
p121
aS'CDKN2A'
p122
aS'BARD1'
p123
aS'FOS'
p124
aS'ANXA7'
p125
aS'RBPMS'
p126
aS'MAPK3'
p127
aS'MAPK1'
p128
aS'MAPK6'
p129
aS'MAPK8'
p130
aS'NEDD4L'
p131
aS'ATXN1'
p132
aS'KRT40'
p133
aS'UBE2E1'
p134
aS'CASP8'
p135
aS'AKT1'
p136
aS'MYC'
p137
aS'PNMA1'
p138
aS'TRIM54'
p139
aS'rev'
p140
aS'MBP'
p141
aS'SUV39H1'
p142
aS'ITSN1'
p143
aS'LNX1'
p144
aS'ABL1'
p145
aS'HNRNPK'
p146
aS'HSP90AA1'
p147
aS'SRPK2'
p148
aS'EWSR1'
p149
aS'PTEN'
p150
aS'TCF4'
p151
aS'-'
p152
aS'KAT2B'
p153
aS'CSNK2B'
p154
aS'RHOU'
p155
aS'NEDD4'
p156
aS'TRAF1'
p157
aS'TRAF2'
p158
aS'TRAF6'
p159
aS'PLCG1'
p160
aS'IKBKG'
p161
aS'CREBBP'
p162
aS'TP53'
p163
aS'UBE3A'
p164
aS'HTT'
p165
aS'ACTA1'
p166
aS'EGFR'
p167
aS'TERF2IP'
p168
aS'KRTAP5-9'
p169
aS'SMN1'
p170
aS'RB1'
p171
aS'MDFI'
p172
aS'FAM9B'
p173
aS'UBQLN1'
p174
aS'UBQLN4'
p175
aS'NR3C1'
p176
aS'CBL'
p177
aS'RXRA'
p178
aS'tat'
p179
aS'HDAC3'
p180
aS'USP7'
p181
aS'LCK'
p182
aS'STAT1'
p183
aS'GOLGA2'
p184
aS'CSNK2A1'
p185
aS'RAD23A'
p186
a.