(lp0
S'RNF10'
p1
aS'RNF114'
p2
aS'RNF115'
p3
aS'RNF111'
p4
aS'DHX9'
p5
aS'ITGA5'
p6
aS'COL4A1'
p7
aS'GRN'
p8
aS'ITGAV'
p9
aS'SMAD5'
p10
aS'CKS1B'
p11
aS'TCEA2'
p12
aS'CBLB'
p13
aS'BEGAIN'
p14
aS'MCM10'
p15
aS'CHFR'
p16
aS'RCOR3'
p17
aS'NRXN1'
p18
aS'KHDRBS3'
p19
aS'KHDRBS2'
p20
aS'IGFBP3'
p21
aS'PRKAR2A'
p22
aS'LRSAM1'
p23
aS'ZMAT2'
p24
aS'MYBL2'
p25
aS'VCL'
p26
aS'AP2A1'
p27
aS'TUBG1'
p28
aS'RAD9A'
p29
aS'CALM2'
p30
aS'CALM3'
p31
aS'SPG21'
p32
aS'BRD7'
p33
aS'DNAJA3'
p34
aS'PTPN12'
p35
aS'CSF2RB'
p36
aS'HABP4'
p37
aS'ZSCAN1'
p38
aS'SRSF1'
p39
aS'ZNF581'
p40
aS'ZNF587'
p41
aS'BCR'
p42
aS'TDG'
p43
aS'NMI'
p44
aS'01/12/01'
p45
aS'KRT20'
p46
aS'TAX1BP1'
p47
aS'SERPINB9'
p48
aS'NTRK2'
p49
aS'RASSF1'
p50
aS'RASSF5'
p51
aS'EFHC2'
p52
aS'PRDM14'
p53
aS'GGA1'
p54
aS'GGA3'
p55
aS'GGA2'
p56
aS'CTNNBL1'
p57
aS'CRY1'
p58
aS'SH3KBP1'
p59
aS'BEX2'
p60
aS'GRIN2B'
p61
aS'GRIN2A'
p62
aS'GNA12'
p63
aS'GNA13'
p64
aS'GRIN2D'
p65
aS'IL6ST'
p66
aS'DBN1'
p67
aS'CDC73'
p68
aS'GTF2F2'
p69
aS'AKAP9'
p70
aS'HSP90B1'
p71
aS'H3F3A'
p72
aS'CSNK1A1'
p73
aS'RALBP1'
p74
aS'RAP1B'
p75
aS'RAP1A'
p76
aS'PPP1R8'
p77
aS'MTNR1A'
p78
aS'IL2RB'
p79
aS'CDK5RAP2'
p80
aS'BAD'
p81
aS'TFG'
p82
aS'PPP3CA'
p83
aS'FGFR2'
p84
aS'DZIP3'
p85
aS'SYT1'
p86
aS'SAP30'
p87
aS'PRSS23'
p88
aS'TBK1'
p89
aS'PRKAA2'
p90
aS'MCL1'
p91
aS'SORBS1'
p92
aS'SORBS3'
p93
aS'SORBS2'
p94
aS'ARHGDIA'
p95
aS'LMNA'
p96
aS'DDX20'
p97
aS'DDX24'
p98
aS'PARD6A'
p99
aS'ERBB4'
p100
aS'MET'
p101
aS'MAP1B'
p102
aS'GNAS'
p103
aS'KRT8'
p104
aS'TMCC2'
p105
aS'LATS1'
p106
aS'SPTBN1'
p107
aS'TFAP2A'
p108
aS'ILF3'
p109
aS'NAN'
p110
aS'WHSC1L1'
p111
aS'UBE2G2'
p112
aS'H2AFX'
p113
aS'RNF8'
p114
aS'RNF7'
p115
aS'RNF4'
p116
aS'RNF5'
p117
aS'ADRBK1'
p118
aS'FAM118B'
p119
aS'NGFRAP1'
p120
aS'NKX3-1'
p121
aS'ADAM15'
p122
aS'CPNE2'
p123
aS'CPNE1'
p124
aS'CPNE4'
p125
aS'DNMT3B'
p126
aS'DNMT3A'
p127
aS'SNRPC'
p128
aS'SNRPA'
p129
aS'HIPK3'
p130
aS'ZGPAT'
p131
aS'ELAVL1'
p132
aS'CCDC53'
p133
aS'DTX3'
p134
aS'ALAS1'
p135
aS'LONRF1'
p136
aS'CDCA7L'
p137
aS'RB1CC1'
p138
aS'CCNA2'
p139
aS'DYNC1I1'
p140
aS'VPS28'
p141
aS'BTBD2'
p142
aS'GATA2'
p143
aS'ARFGAP1'
p144
aS'NEK6'
p145
aS'NEK2'
p146
aS'U2AF1'
p147
aS'MPHOSPH6'
p148
aS'NSD1'
p149
aS'GMNN'
p150
aS'KRTAP26-1'
p151
aS'NUDT18'
p152
aS'STX5'
p153
aS'AURKB'
p154
aS'TXLNB'
p155
aS'ABI3'
p156
aS'ABI1'
p157
aS'KRT38'
p158
aS'RAB4A'
p159
aS'RBBP7'
p160
aS'RBBP6'
p161
aS'KXD1'
p162
aS'MEIS1'
p163
aS'LMNB1'
p164
aS'TOLLIP'
p165
aS'OPTN'
p166
aS'JMJD6'
p167
aS'CCDC36'
p168
aS'PLA2G2A'
p169
aS'APPL1'
p170
aS'APPL2'
p171
aS'NTRK1'
p172
aS'MLLT4'
p173
aS'PDZK1'
p174
aS'Mbp'
p175
aS'BCL3'
p176
aS'PCGF2'
p177
aS'TAF11'
p178
aS'DDX5'
p179
aS'GNAI3'
p180
aS'NFKBIB'
p181
aS'DTNB'
p182
aS'RIN3'
p183
aS'RIPK1'
p184
aS'LATS2'
p185
aS'SLC9A3R2'
p186
aS'FBF1'
p187
aS'ACTN4'
p188
aS'PTPRC'
p189
aS'IFT20'
p190
aS'NR5A1'
p191
aS'F2'
p192
aS'MX1'
p193
aS'KIAA0368'
p194
aS'MAP1LC3A'
p195
aS'KRT13'
p196
aS'CDC6'
p197
aS'NGFR'
p198
aS'MAD1L1'
p199
aS'ARIH2'
p200
aS'EPS15'
p201
aS'SUFU'
p202
aS'PLA2G4A'
p203
aS'MBD3'
p204
aS'CMTM5'
p205
aS'SYNCRIP'
p206
aS'FUS'
p207
aS'CCNE1'
p208
aS'RAB11A'
p209
aS'GCC1'
p210
aS'IRF3'
p211
aS'CLK2'
p212
aS'DMD'
p213
aS'ZBTB14'
p214
aS'ADAP1'
p215
aS'GAB2'
p216
aS'TRIM69'
p217
aS'MTOR'
p218
aS'SNRNP70'
p219
aS'ITK'
p220
aS'HIP1'
p221
aS'SERTAD1'
p222
aS'BID'
p223
aS'NOTCH2'
p224
aS'HSF1'
p225
aS'KRTAP3-2'
p226
aS'MDM4'
p227
aS'SNRPD3'
p228
aS'SNRPD2'
p229
aS'KPNA3'
p230
aS'ARAF'
p231
aS'CRX'
p232
aS'FRS3'
p233
aS'FRS2'
p234
aS'TNFRSF14'
p235
aS'NINL'
p236
aS'EHMT2'
p237
aS'MARK4'
p238
aS'LCP2'
p239
aS'CHRD'
p240
aS'PPP2R1A'
p241
aS'PPP2R1B'
p242
aS'C1orf216'
p243
aS'WASL'
p244
aS'PKN1'
p245
aS'FAM124B'
p246
aS'FAM124A'
p247
aS'CSNK1D'
p248
aS'ATP13A2'
p249
aS'TUBA1B'
p250
aS'TAF7'
p251
aS'TAF1'
p252
aS'USP15'
p253
aS'AP2M1'
p254
aS'SREBF2'
p255
aS'SREBF1'
p256
aS'MTA1'
p257
aS'ELANE'
p258
aS'MAX'
p259
aS'EVL'
p260
aS'ZNF451'
p261
aS'RPS6KA6'
p262
aS'PSMD11'
p263
aS'EXOSC10'
p264
aS'ARF1'
p265
aS'ARF6'
p266
aS'EIF4E2'
p267
aS'TBL1X'
p268
aS'CALR'
p269
aS'WDR77'
p270
aS'RAB27A'
p271
aS'ELK1'
p272
aS'KRT19'
p273
aS'PRKG1'
p274
aS'KLC3'
p275
aS'PFN1'
p276
aS'PFN2'
p277
aS'CREM'
p278
aS'TRIM5'
p279
aS'PDGFRA'
p280
aS'TPM3'
p281
aS'FBXW7'
p282
aS'TGFBR2'
p283
aS'TJP1'
p284
aS'NFYC'
p285
aS'NFYA'
p286
aS'SMARCA2'
p287
aS'DCN'
p288
aS'DCX'
p289
aS'CUL5'
p290
aS'TRIM29'
p291
aS'TRIM24'
p292
aS'TRIM25'
p293
aS'CREB5'
p294
aS'TRIM21'
p295
aS'KAT7'
p296
aS'GNAO1'
p297
aS'AEN'
p298
aS'MOS'
p299
aS'BAG4'
p300
aS'SH2D1A'
p301
aS'MEOX1'
p302
aS'CALCOCO1'
p303
aS'RGS3'
p304
aS'NAB2'
p305
aS'CANX'
p306
aS'NR1I2'
p307
aS'GRB7'
p308
aS'LSM8'
p309
aS'COL2A1'
p310
aS'POLR2E'
p311
aS'POLR2C'
p312
aS'LSM3'
p313
aS'MAPK10'
p314
aS'MAPK11'
p315
aS'MAPK12'
p316
aS'AMFR'
p317
aS'USO1'
p318
aS'HIST1H1B'
p319
aS'HIST1H1C'
p320
aS'PICK1'
p321
aS'LPXN'
p322
aS'BCL2L11'
p323
aS'MSX1'
p324
aS'GTF2H1'
p325
aS'SUMO3'
p326
aS'CDC7'
p327
aS'BLOC1S6'
p328
aS'STK3'
p329
aS'YBX1'
p330
aS'CHIC2'
p331
aS'ING1'
p332
aS'INS'
p333
aS'SNIP1'
p334
aS'TRA2B'
p335
aS'MDC1'
p336
aS'CXCR4'
p337
aS'FCHSD2'
p338
aS'UBA52'
p339
aS'EXOSC6'
p340
aS'EXOSC4'
p341
aS'KPNA1'
p342
aS'STXBP1'
p343
aS'FANCG'
p344
aS'FANCC'
p345
aS'FANCA'
p346
aS'HNRNPA1'
p347
aS'IRS2'
p348
aS'CDK7'
p349
aS'CDK8'
p350
aS'RERE'
p351
aS'HSPD1'
p352
aS'PRKCI'
p353
aS'PRKCQ'
p354
aS'ZNF572'
p355
aS'CTSB'
p356
aS'CTSG'
p357
aS'FGFR4'
p358
aS'FGFR3'
p359
aS'INCA1'
p360
aS'EMD'
p361
aS'UBA1'
p362
aS'UBE2M'
p363
aS'UBE2C'
p364
aS'UBE2Z'
p365
aS'UBE2S'
p366
aS'ILK'
p367
aS'RABEP1'
p368
aS'MORF4L2'
p369
aS'MORF4L1'
p370
aS'DTX2'
p371
aS'BIRC5'
p372
aS'BIRC3'
p373
aS'EIF6'
p374
aS'NSF'
p375
aS'SP100'
p376
aS'SYCE1'
p377
aS'TNIK'
p378
aS'DDX6'
p379
aS'INADL'
p380
aS'HLA-A'
p381
aS'MYD88'
p382
aS'TNFAIP3'
p383
aS'C6orf165'
p384
aS'MARK3'
p385
aS'RAD21'
p386
aS'NR2E3'
p387
aS'BCL10'
p388
aS'TYK2'
p389
aS'SUPT5H'
p390
aS'HINFP'
p391
aS'TANK'
p392
aS'GZMB'
p393
aS'RET'
p394
aS'PEX19'
p395
aS'LEF1'
p396
aS'NAA38'
p397
aS'RBM4'
p398
aS'NDE1'
p399
aS'NUMBL'
p400
aS'BMI1'
p401
aS'RBMX'
p402
aS'GHR'
p403
aS'SF1'
p404
aS'FBLN1'
p405
aS'STRAP'
p406
aS'PUF60'
p407
aS'GTF2F1'
p408
aS'PAFAH1B3'
p409
aS'DMRT3'
p410
aS'ZNF24'
p411
aS'EPOR'
p412
aS'RANBP2'
p413
aS'TXN2'
p414
aS'ARNT'
p415
aS'KRTAP5-6'
p416
aS'VAMP2'
p417
aS'ROCK1'
p418
aS'MMP2'
p419
aS'CCNT1'
p420
aS'WNK1'
p421
aS'RUNX2'
p422
aS'RUNX1'
p423
aS'DOCK8'
p424
aS'JUP'
p425
aS'CTNND1'
p426
aS'PPIG'
p427
aS'PPIA'
p428
aS'KIAA0408'
p429
aS'MID1'
p430
aS'WASF1'
p431
aS'GSK3A'
p432
aS'PCBP2'
p433
aS'PCBP1'
p434
aS'MYST2'
p435
aS'FSD2'
p436
aS'EPHA2'
p437
aS'MNAT1'
p438
aS'ZNF250'
p439
aS'NAGK'
p440
aS'MFAP1'
p441
aS'VAC14'
p442
aS'C19orf50'
p443
aS'C19orf57'
p444
aS'SNAP23'
p445
aS'TNFSF11'
p446
aS'SH2D4A'
p447
aS'MRFAP1L1'
p448
aS'DCTN1'
p449
aS'UBE2V1'
p450
aS'UBE2V2'
p451
aS'RNF20'
p452
aS'FURIN'
p453
aS'MYOC'
p454
aS'HMOX2'
p455
aS'MYOG'
p456
aS'NOS1'
p457
aS'ITGB3'
p458
aS'NOS3'
p459
aS'ITGB5'
p460
aS'FGR'
p461
aS'PLD2'
p462
aS'SNX1'
p463
aS'PKM'
p464
aS'TUBB2A'
p465
aS'C1QBP'
p466
aS'GABARAPL1'
p467
aS'RAD54B'
p468
aS'DVL1'
p469
aS'PSME3'
p470
aS'HCVgp1'
p471
aS'MIPOL1'
p472
aS'NONO'
p473
aS'TUBB3'
p474
aS'MKNK1'
p475
aS'ZBED1'
p476
aS'LRP2'
p477
aS'CDKN2C'
p478
aS'MAP2'
p479
aS'APEX1'
p480
aS'ESRRG'
p481
aS'ESRRA'
p482
aS'CASP10'
p483
aS'PTBP1'
p484
aS'PABPC1'
p485
aS'EED'
p486
aS'MAPKAPK5'
p487
aS'MAPKAPK2'
p488
aS'ARL6IP1'
p489
aS'FES'
p490
aS'MAPK8IP1'
p491
aS'ID2'
p492
aS'CHGB'
p493
aS'PDCD6IP'
p494
aS'MSN'
p495
aS'SRA1'
p496
aS'ORC4'
p497
aS'ORC5'
p498
aS'NR0B2'
p499
aS'DRAP1'
p500
aS'CBLC'
p501
aS'nef'
p502
aS'GRAP2'
p503
aS'PRKAR1A'
p504
aS'CHAF1A'
p505
aS'BIN1'
p506
aS'RGS20'
p507
aS'UBTF'
p508
aS'GFAP'
p509
aS'GAB1'
p510
aS'RELB'
p511
aS'COPS2'
p512
aS'NUDT3'
p513
aS'MEF2C'
p514
aS'MEF2A'
p515
aS'RPLP1'
p516
aS'TEX11'
p517
aS'SFRS1'
p518
aS'MAD2L2'
p519
aS'TCEB2'
p520
aS'FAM90A1'
p521
aS'GPS2'
p522
aS'RBM48'
p523
aS'RRAS2'
p524
aS'PJA1'
p525
aS'CHEK1'
p526
aS'PAX6'
p527
aS'PSMA7'
p528
aS'C3'
p529
aS'ENKD1'
p530
aS'COL1A1'
p531
aS'PLD1'
p532
aS'FOXO3'
p533
aS'FOXO1'
p534
aS'WBP4'
p535
aS'ZYX'
p536
aS'SOCS6'
p537
aS'SOCS1'
p538
aS'PPP2CB'
p539
aS'CCNC'
p540
aS'CCNH'
p541
aS'LRRK2'
p542
aS'TGFB1I1'
p543
aS'CDC25C'
p544
aS'RNF41'
p545
aS'ITPR1'
p546
aS'AMPH'
p547
aS'CFTR'
p548
aS'RNF126'
p549
aS'TEC'
p550
aS'NBN'
p551
aS'NFKB2'
p552
aS'RAP2A'
p553
aS'SIAH2'
p554
aS'HIVEP1'
p555
aS'BAP1'
p556
aS'ZCCHC10'
p557
aS'AP1M1'
p558
aS'CCDC146'
p559
aS'DLG3'
p560
aS'DLG2'
p561
aS'DST'
p562
aS'DSP'
p563
aS'RING1'
p564
aS'LMO1'
p565
aS'LMO3'
p566
aS'MCRS1'
p567
aS'DDX17'
p568
aS'PSMC3'
p569
aS'TRIP10'
p570
aS'EIF3E'
p571
aS'FADD'
p572
aS'CCL5'
p573
aS'AP2B1'
p574
aS'GTF2E1'
p575
aS'RALA'
p576
aS'DNAJB1'
p577
aS'EPB41'
p578
aS'MSH2'
p579
aS'PACSIN1'
p580
aS'TOE1'
p581
aS'YTHDC1'
p582
aS'CHERP'
p583
aS'EHHADH'
p584
aS'NME7'
p585
aS'INPP5D'
p586
aS'NME1'
p587
aS'FGFR1'
p588
aS'VPS37C'
p589
aS'TIAM1'
p590
aS'HOMEZ'
p591
aS'SFPQ'
p592
aS'UPF1'
p593
aS'WBP11'
p594
aS'IL16'
p595
aS'GDF9'
p596
aS'ANXA2'
p597
aS'MCM6'
p598
aS'MCM4'
p599
aS'MCM3'
p600
aS'MBIP'
p601
aS'GRIP1'
p602
aS'CCDC67'
p603
aS'FAF1'
p604
aS'CDC27'
p605
aS'CDC20'
p606
aS'NUP153'
p607
aS'MAPK7'
p608
aS'BCAP31'
p609
aS'C1orf109'
p610
aS'KCTD9'
p611
aS'SERPINA1'
p612
aS'SERPINA3'
p613
aS'HCFC1'
p614
aS'CREB3L1'
p615
aS'BRAP'
p616
aS'BRAF'
p617
aS'ANP32A'
p618
aS'DDB1'
p619
aS'CCDC90B'
p620
aS'NF2'
p621
aS'BLM'
p622
aS'PPP1R18'
p623
aS'TSC1'
p624
aS'NEDD8'
p625
aS'NEDD9'
p626
aS'LASP1'
p627
aS'TRIM9'
p628
aS'TRIM8'
p629
aS'HNF1A'
p630
aS'HMBOX1'
p631
aS'RAB5A'
p632
aS'SNAP25'
p633
aS'ANXA1'
p634
aS'PRR13'
p635
aS'RNPS1'
p636
aS'SPRY1'
p637
aS'GNB5'
p638
aS'GNB1'
p639
aS'GNB2'
p640
aS'IQGAP1'
p641
aS'TUBA4A'
p642
aS'VPS11'
p643
aS'CLN8'
p644
aS'CLNK'
p645
aS'ZBTB24'
p646
aS'KRTAP9-4'
p647
aS'GEM'
p648
aS'DTNBP1'
p649
aS'SS18L1'
p650
aS'PRDX4'
p651
aS'NDN'
p652
aS'UCHL1'
p653
aS'ZNF408'
p654
aS'AIMP2'
p655
aS'CASP6'
p656
aS'CASP2'
p657
aS'CASP1'
p658
aS'CASP9'
p659
aS'AKT2'
p660
aS'MYB'
p661
aS'S100B'
p662
aS'PNMA5'
p663
aS'BRMS1'
p664
aS'RAB7A'
p665
aS'NCF1'
p666
aS'STAMBP'
p667
aS'HNRNPH3'
p668
aS'TBXA2R'
p669
aS'HNRNPUL1'
p670
aS'STAU1'
p671
aS'TMSB4X'
p672
aS'TXN'
p673
aS'BLZF1'
p674
aS'RXRG'
p675
aS'WDR5'
p676
aS'WRN'
p677
aS'SMARCD1'
p678
aS'CCND3'
p679
aS'SCNM1'
p680
aS'RPS27A'
p681
aS'SOX10'
p682
aS'PDLIM7'
p683
aS'FTL'
p684
aS'TNK2'
p685
aS'CDC23'
p686
aS'MITF'
p687
aS'QKI'
p688
aS'PPFIA1'
p689
aS'RTN4'
p690
aS'BAIAP2'
p691
aS'PARD3'
p692
aS'C7orf64'
p693
aS'HUWE1'
p694
aS'UTP14A'
p695
aS'C1QA'
p696
aS'ITGB2'
p697
aS'TIRAP'
p698
aS'CSK'
p699
aS'CLOCK'
p700
aS'CBX8'
p701
aS'CBX3'
p702
aS'CBX1'
p703
aS'RAB1A'
p704
aS'KIF1A'
p705
aS'AATF'
p706
aS'ERCC3'
p707
aS'CD247'
p708
aS'LSM2'
p709
aS'BHLHE40'
p710
aS'COPB1'
p711
aS'CARM1'
p712
aS'PSTPIP1'
p713
aS'RABGEF1'
p714
aS'SGK1'
p715
aS'NEFL'
p716
aS'EIF4EBP1'
p717
aS'SUV39H2'
p718
aS'NUMB'
p719
aS'CTDP1'
p720
aS'ZNF446'
p721
aS'L3MBTL3'
p722
aS'OTX1'
p723
aS'THBS1'
p724
aS'LNX2'
p725
aS'ABL2'
p726
aS'HNRNPU'
p727
aS'HNRNPM'
p728
aS'HNRNPF'
p729
aS'GOLM1'
p730
aS'TADA3'
p731
aS'DOK1'
p732
aS'RAB3A'
p733
aS'TSGA10'
p734
aS'MUC1'
p735
aS'APOA1'
p736
aS'GPRASP1'
p737
aS'TTR'
p738
aS'TTN'
p739
aS'GIT2'
p740
aS'MAGEA6'
p741
aS'HOMER3'
p742
aS'THAP7'
p743
aS'TRIM15'
p744
aS'CATSPER1'
p745
aS'HDAC7'
p746
aS'RINT1'
p747
aS'MED1'
p748
aS'MED4'
p749
aS'MED8'
p750
aS'MED9'
p751
aS'PPP5C'
p752
aS'MOBKL3'
p753
aS'PCBD2'
p754
aS'PRDX1'
p755
aS'OTUB1'
p756
aS'OTUB2'
p757
aS'AXIN1'
p758
aS'RPS6KA3'
p759
aS'SDCBP2'
p760
aS'SNAPIN'
p761
aS'VASP'
p762
aS'TOPORS'
p763
aS'DNMT1'
p764
aS'HSPG2'
p765
aS'KAT2A'
p766
aS'CCDC57'
p767
aS'PPARGC1A'
p768
aS'LENG1'
p769
aS'MAFG'
p770
aS'IGSF21'
p771
aS'RPSA'
p772
aS'SOX5'
p773
aS'SMARCB1'
p774
aS'RBPJ'
p775
aS'EEF1D'
p776
aS'TRIM32'
p777
aS'S100A4'
p778
aS'JUNB'
p779
aS'JUND'
p780
aS'TRAF5'
p781
aS'HOOK2'
p782
aS'COMMD1'
p783
aS'CAMK2D'
p784
aS'CAMK2G'
p785
aS'CAMK2A'
p786
aS'CAMK2B'
p787
aS'POLR1C'
p788
aS'JAK3'
p789
aS'GTF2I'
p790
aS'NR1H3'
p791
aS'PPARD'
p792
aS'PPARA'
p793
aS'ASH2L'
p794
aS'FAM74A4'
p795
aS'CEP44'
p796
aS'CTTN'
p797
aS'ASCC2'
p798
aS'CCNA1'
p799
aS'MAP3K10'
p800
aS'MAP3K14'
p801
aS'RARG'
p802
aS'DYRK1A'
p803
aS'PTGES3'
p804
aS'SLC2A4'
p805
aS'EPAS1'
p806
aS'FLT1'
p807
aS'KNG1'
p808
aS'SF3B4'
p809
aS'SF3B1'
p810
aS'SF3B3'
p811
aS'SF3B2'
p812
aS'MAP3K2'
p813
aS'MAP3K3'
p814
aS'MAP3K4'
p815
aS'SH2D2A'
p816
aS'SETD7'
p817
aS'KRTAP12-2'
p818
aS'MAST1'
p819
aS'QARS'
p820
aS'CEP63'
p821
aS'ZFYVE9'
p822
aS'CCR5'
p823
aS'TOP2A'
p824
aS'FGF2'
p825
aS'SDC2'
p826
aS'CWF19L2'
p827
aS'RBL2'
p828
aS'TAB2'
p829
aS'NUMA1'
p830
aS'IKBKAP'
p831
aS'BNIP3L'
p832
aS'RUVBL2'
p833
aS'CEBPE'
p834
aS'TADA2A'
p835
aS'HTRA2'
p836
aS'SPI1'
p837
aS'BMPR1A'
p838
aS'PRR20A'
p839
aS'EXOC1'
p840
aS'EXOC5'
p841
aS'MAPKBP1'
p842
aS'RAD18'
p843
aS'USP28'
p844
aS'USP21'
p845
aS'ARHGEF7'
p846
aS'LDB1'
p847
aS'PLEKHA5'
p848
aS'KMT2A'
p849
aS'TPT1'
p850
aS'ECSIT'
p851
aS'RACGAP1'
p852
aS'VTN'
p853
aS'UHRF2'
p854
aS'KEAP1'
p855
aS'SMN2'
p856
aS'POLA2'
p857
aS'ZBTB9'
p858
aS'CUL4A'
p859
aS'C8orf33'
p860
aS'KLHL12'
p861
aS'MAPRE1'
p862
aS'AQP1'
p863
aS'MED21'
p864
aS'KANSL1'
p865
aS'CDK5R1'
p866
aS'RBM39'
p867
aS'EPHB2'
p868
aS'TOM1L1'
p869
aS'ACTC1'
p870
aS'ING5'
p871
aS'SH3GL1'
p872
aS'SH3GL3'
p873
aS'FTH1'
p874
aS'ECT2'
p875
aS'STAM2'
p876
aS'SPOP'
p877
aS'TP53BP1'
p878
aS'PHYHIP'
p879
aS'PRRC2A'
p880
aS'SPAG5'
p881
aS'UBASH3B'
p882
aS'PIM1'
p883
aS'STK16'
p884
aS'GABARAP'
p885
aS'GRB10'
p886
aS'LAT'
p887
aS'HSD17B10'
p888
aS'PRKD1'
p889
aS'PDE6D'
p890
aS'FLNC'
p891
aS'RLIM'
p892
aS'BEND7'
p893
aS'RXRB'
p894
aS'YAP1'
p895
aS'ABCA1'
p896
aS'TUBGCP4'
p897
aS'PSMD4'
p898
aS'RTP5'
p899
aS'TCEANC'
p900
aS'C19orf66'
p901
aS'EIF4E'
p902
aS'BCAR3'
p903
aS'TRAF3IP1'
p904
aS'HDAC9'
p905
aS'NDC80'
p906
aS'CDT1'
p907
aS'SUMO1P1'
p908
aS'USP8'
p909
aS'USP4'
p910
aS'RNF32'
p911
aS'RNF31'
p912
aS'CTNNA1'
p913
aS'MPP3'
p914
aS'MPP6'
p915
aS'ID3'
p916
aS'RBFOX1'
p917
aS'SYN1'
p918
aS'CD4'
p919
aS'STAT6'
p920
aS'RHEB'
p921
aS'PDE4D'
p922
aS'MAP2K1'
p923
aS'MAP3K11'
p924
aS'MAP2K7'
p925
aS'MAP2K4'
p926
aS'LAMTOR5'
p927
aS'ALDOA'
p928
aS'PSMF1'
p929
aS'APLP1'
p930
aS'GIPC1'
p931
aS'PTMA'
p932
aS'CD2AP'
p933
aS'UBE2L6'
p934
aS'PLAT'
p935
aS'EXOSC8'
p936
aS'CDR2'
p937
aS'EXOSC5'
p938
aS'CFL1'
p939
a.